target datalayout = "e-m:e-p270:32:32-p271:32:32-p272:64:64-i64:64-i128:128-f80:128-n8:16:32:64-S128"
target triple = "x86_64-pc-linux-gnu"

%"class.arrow::SmallBasicDecimal" = type { i32 }
%"class.arrow::BasicDecimal32" = type { %"class.arrow::SmallBasicDecimal" }

; Function Attrs: mustprogress nounwind uwtable
define linkonce_odr noundef i32 @_ZN5arrow8internal16SafeSignedNegateIiEET_S2_(i32 noundef %0) #0 comdat {
  %2 = alloca i32, align 4
  store i32 %0, ptr %2, align 4, !tbaa !30
  %3 = load i32, ptr %2, align 4, !tbaa !30
  %4 = xor i32 %3, -1
  %5 = add i32 %4, 1
  ret i32 %5
}

; Function Attrs: mustprogress nounwind uwtable
define linkonce_odr void @_ZN5arrow17SmallBasicDecimalIiEC2IiiEET_(ptr noundef nonnull align 4 dereferenceable(4) %0, i32 noundef %1) unnamed_addr #0 comdat align 2 {
  %3 = alloca ptr, align 8
  %4 = alloca i32, align 4
  store ptr %0, ptr %3, align 8, !tbaa !25
  store i32 %1, ptr %4, align 4, !tbaa !30
  %5 = load ptr, ptr %3, align 8
  %6 = getelementptr inbounds nuw %"class.arrow::SmallBasicDecimal", ptr %5, i32 0, i32 0
  %7 = load i32, ptr %4, align 4, !tbaa !30
  store i32 %7, ptr %6, align 4, !tbaa !27
  ret void
}

; Function Attrs: mustprogress uwtable
define noundef nonnull align 4 dereferenceable(4) ptr @_ZN5arrow14BasicDecimal326NegateEv(ptr noundef nonnull align 4 dereferenceable(4) %0) #6 align 2 {
  %2 = alloca ptr, align 8
  store ptr %0, ptr %2, align 8, !tbaa !41
  %3 = load ptr, ptr %2, align 8
  %4 = getelementptr inbounds nuw %"class.arrow::SmallBasicDecimal", ptr %3, i32 0, i32 0
  %5 = load i32, ptr %4, align 4, !tbaa !27
  %6 = call noundef i32 @_ZN5arrow8internal16SafeSignedNegateIiEET_S2_(i32 noundef %5)
  %7 = getelementptr inbounds nuw %"class.arrow::SmallBasicDecimal", ptr %3, i32 0, i32 0
  store i32 %6, ptr %7, align 4, !tbaa !27
  ret ptr %3
}

; Function Attrs: inlinehint mustprogress nounwind uwtable
define linkonce_odr void @_ZN5arrow14BasicDecimal32CI2NS_17SmallBasicDecimalIiEEIiiEET_(ptr noundef nonnull align 4 dereferenceable(4) %0, i32 noundef %1) unnamed_addr #3 comdat align 2 {
  %3 = alloca ptr, align 8
  %4 = alloca i32, align 4
  store ptr %0, ptr %3, align 8, !tbaa !41
  store i32 %1, ptr %4, align 4, !tbaa !30
  %5 = load ptr, ptr %3, align 8
  %6 = load i32, ptr %4, align 4, !tbaa !30
  call void @_ZN5arrow17SmallBasicDecimalIiEC2IiiEET_(ptr noundef nonnull align 4 dereferenceable(4) %5, i32 noundef %6) #12
  ret void
}

; Function Attrs: mustprogress nounwind uwtable
define weak_odr noundef i32 @_ZNK5arrow17SmallBasicDecimalIiE5valueEv(ptr noundef nonnull align 4 dereferenceable(4) %0) #0 comdat align 2 {
  %2 = alloca ptr, align 8
  store ptr %0, ptr %2, align 8, !tbaa !25
  %3 = load ptr, ptr %2, align 8
  %4 = getelementptr inbounds nuw %"class.arrow::SmallBasicDecimal", ptr %3, i32 0, i32 0
  %5 = load i32, ptr %4, align 4, !tbaa !27
  ret i32 %5
}

; Function Attrs: mustprogress uwtable
define linkonce_odr noundef nonnull align 4 dereferenceable(4) ptr @_ZN5arrow14BasicDecimal323AbsEv(ptr noundef nonnull align 4 dereferenceable(4) %0) #6 comdat align 2 {
  %2 = alloca ptr, align 8
  %3 = alloca %"class.arrow::BasicDecimal32", align 4
  store ptr %0, ptr %2, align 8, !tbaa !41
  %4 = load ptr, ptr %2, align 8
  call void @llvm.lifetime.start.p0(i64 4, ptr %3) #12
  call void @_ZN5arrow14BasicDecimal32CI2NS_17SmallBasicDecimalIiEEIiiEET_(ptr noundef nonnull align 4 dereferenceable(4) %3, i32 noundef 0) #12
  %5 = call noundef zeroext i1 @_ZN5arrowltERKNS_14BasicDecimal32ES2_(ptr noundef nonnull align 4 dereferenceable(4) %4, ptr noundef nonnull align 4 dereferenceable(4) %3)
  br i1 %5, label %6, label %8

6:                                                ; preds = %1
  %7 = call noundef nonnull align 4 dereferenceable(4) ptr @_ZN5arrow14BasicDecimal326NegateEv(ptr noundef nonnull align 4 dereferenceable(4) %4)
  br label %9

8:                                                ; preds = %1
  br label %9

9:                                                ; preds = %8, %6
  %10 = phi ptr [ %7, %6 ], [ %4, %8 ]
  call void @llvm.lifetime.end.p0(i64 4, ptr %3) #12
  ret ptr %10
}

; Function Attrs: mustprogress nounwind uwtable
define noundef zeroext i1 @_ZN5arrowltERKNS_14BasicDecimal32ES2_(ptr noundef nonnull align 4 dereferenceable(4) %0, ptr noundef nonnull align 4 dereferenceable(4) %1) #0 {
  %3 = alloca ptr, align 8
  %4 = alloca ptr, align 8
  store ptr %0, ptr %3, align 8, !tbaa !41
  store ptr %1, ptr %4, align 8, !tbaa !41
  %5 = load ptr, ptr %3, align 8, !tbaa !41
  %6 = call noundef i32 @_ZNK5arrow17SmallBasicDecimalIiE5valueEv(ptr noundef nonnull align 4 dereferenceable(4) %5)
  %7 = load ptr, ptr %4, align 8, !tbaa !41
  %8 = call noundef i32 @_ZNK5arrow17SmallBasicDecimalIiE5valueEv(ptr noundef nonnull align 4 dereferenceable(4) %7)
  %9 = icmp slt i32 %6, %8
  ret i1 %9
}

; Function Attrs: mustprogress nounwind uwtable
define linkonce_odr noundef ptr @_ZN5arrow13DecimalTraitsINS_14BasicDecimal32EE13powers_of_tenEv() #0 comdat align 2 {
  ret ptr @_ZN5arrowL21kDecimal32PowersOfTenE
}

; Function Attrs: mustprogress uwtable
define linkonce_odr i32 @_ZN5arrow14BasicDecimal323AbsERKS0_(ptr noundef nonnull align 4 dereferenceable(4) %0) #6 comdat align 2 {
  %2 = alloca %"class.arrow::BasicDecimal32", align 4
  %3 = alloca ptr, align 8
  %4 = alloca %"class.arrow::BasicDecimal32", align 4
  store ptr %0, ptr %3, align 8, !tbaa !41
  call void @llvm.lifetime.start.p0(i64 4, ptr %4) #12
  %5 = load ptr, ptr %3, align 8, !tbaa !41
  call void @llvm.memcpy.p0.p0.i64(ptr align 4 %4, ptr align 4 %5, i64 4, i1 false)
  %6 = call noundef nonnull align 4 dereferenceable(4) ptr @_ZN5arrow14BasicDecimal323AbsEv(ptr noundef nonnull align 4 dereferenceable(4) %4)
  call void @llvm.memcpy.p0.p0.i64(ptr align 4 %2, ptr align 4 %6, i64 4, i1 false)
  call void @llvm.lifetime.end.p0(i64 4, ptr %4) #12
  %7 = getelementptr inbounds nuw %"class.arrow::BasicDecimal32", ptr %2, i32 0, i32 0
  %8 = getelementptr inbounds nuw %"class.arrow::SmallBasicDecimal", ptr %7, i32 0, i32 0
  %9 = load i32, ptr %8, align 4
  ret i32 %9
}

; Function Attrs: mustprogress uwtable
define noundef zeroext i1 @_ZNK5arrow14BasicDecimal3215FitsInPrecisionEi(ptr noundef nonnull align 4 dereferenceable(4) %0, i32 noundef %1) #6 align 2 {
  %3 = alloca i1, align 1
  %4 = alloca ptr, align 8
  %5 = alloca i32, align 4
  %6 = alloca %"class.arrow::BasicDecimal32", align 4
  store ptr %0, ptr %4, align 8, !tbaa !41
  store i32 %1, ptr %5, align 4, !tbaa !30
  %7 = load ptr, ptr %4, align 8
  br label %8

8:                                                ; preds = %9, %2
  br i1 false, label %9, label %10

9:                                                ; preds = %8
  br label %8, !llvm.loop !136

10:                                               ; preds = %8
  br label %11

11:                                               ; preds = %12, %10
  br i1 false, label %12, label %13

12:                                               ; preds = %11
  br label %11, !llvm.loop !137

13:                                               ; preds = %11
  br label %14

14:                                               ; preds = %15, %13
  br i1 false, label %15, label %16

15:                                               ; preds = %14
  br label %14, !llvm.loop !138

16:                                               ; preds = %14
  br label %17

17:                                               ; preds = %18, %16
  br i1 false, label %18, label %19

18:                                               ; preds = %17
  br label %17, !llvm.loop !139

19:                                               ; preds = %17
  br label %20

20:                                               ; preds = %21, %19
  br i1 false, label %21, label %22

21:                                               ; preds = %20
  br label %20, !llvm.loop !140

22:                                               ; preds = %20
  br label %23

23:                                               ; preds = %24, %22
  br i1 false, label %24, label %25

24:                                               ; preds = %23
  br label %23, !llvm.loop !141

25:                                               ; preds = %23
  %26 = getelementptr inbounds nuw %"class.arrow::SmallBasicDecimal", ptr %7, i32 0, i32 0
  %27 = load i32, ptr %26, align 4, !tbaa !27
  %28 = icmp eq i32 %27, -2147483648
  br i1 %28, label %29, label %30

29:                                               ; preds = %25
  store i1 false, ptr %3, align 1
  br label %39

30:                                               ; preds = %25
  call void @llvm.lifetime.start.p0(i64 4, ptr %6) #12
  %31 = call i32 @_ZN5arrow14BasicDecimal323AbsERKS0_(ptr noundef nonnull align 4 dereferenceable(4) %7)
  %32 = getelementptr inbounds nuw %"class.arrow::BasicDecimal32", ptr %6, i32 0, i32 0
  %33 = getelementptr inbounds nuw %"class.arrow::SmallBasicDecimal", ptr %32, i32 0, i32 0
  store i32 %31, ptr %33, align 4
  %34 = call noundef ptr @_ZN5arrow13DecimalTraitsINS_14BasicDecimal32EE13powers_of_tenEv()
  %35 = load i32, ptr %5, align 4, !tbaa !30
  %36 = sext i32 %35 to i64
  %37 = getelementptr inbounds %"class.arrow::BasicDecimal32", ptr %34, i64 %36
  %38 = call noundef zeroext i1 @_ZN5arrowltERKNS_14BasicDecimal32ES2_(ptr noundef nonnull align 4 dereferenceable(4) %6, ptr noundef nonnull align 4 dereferenceable(4) %37)
  store i1 %38, ptr %3, align 1
  call void @llvm.lifetime.end.p0(i64 4, ptr %6) #12
  br label %39

39:                                               ; preds = %30, %29
  %40 = load i1, ptr %3, align 1
  ret i1 %40
}