; Function Attrs: mustprogress nofree norecurse nosync nounwind willreturn memory(argmem: read) uwtable
define noundef zeroext i1 @_ZNK5arrow14BasicDecimal3215FitsInPrecisionEi(ptr noundef nonnull readonly align 4 captures(none) dereferenceable(4) %0, i32 noundef %1) local_unnamed_addr #7 align 2 {
  %3 = load i32, ptr %0, align 4, !tbaa !10
  %4 = icmp eq i32 %3, -2147483648
  br i1 %4, label %10, label %5

5:                                                ; preds = %2
  %spec.select.i = tail call i32 @llvm.abs.i32(i32 %3, i1 true)
  %6 = sext i32 %1 to i64
  %7 = getelementptr inbounds %"class.arrow::BasicDecimal32", ptr @_ZN5arrowL21kDecimal32PowersOfTenE, i64 %6
  %8 = load i32, ptr %7, align 4, !tbaa !10
  %9 = icmp slt i32 %spec.select.i, %8
  br label %10

10:                                               ; preds = %2, %5
  %.0 = phi i1 [ %9, %5 ], [ false, %2 ]
  ret i1 %.0
}